target datalayout = "e-m:e-p270:32:32-p271:32:32-p272:64:64-i64:64-i128:128-f80:128-n8:16:32:64-S128"
target triple = "x86_64-pc-linux-gnu"

@hf_gsm_a_bssmap_cell_lac = internal global i32 0, align 4
@.str.128 = private unnamed_addr constant [16 x i8] c" - LAC (0x%04x)\00", align 1
@hf_gsm_a_bssmap_sac = internal global i32 0, align 4
@.str.129 = private unnamed_addr constant [12 x i8] c"%s/SAC (%u)\00", align 1
@hf_gsm_a_bssmap_be_rnc_id = internal global i32 0, align 4
@.str.130 = private unnamed_addr constant [15 x i8] c" - RNC-ID (%u)\00", align 1
@.str.131 = private unnamed_addr constant [15 x i8] c"%s/RNC-ID (%u)\00", align 1
@hf_gsm_a_bssmap_cell_ci = internal global i32 0, align 4
@.str.132 = private unnamed_addr constant [11 x i8] c" - CI (%u)\00", align 1
@.str.133 = private unnamed_addr constant [11 x i8] c"%s/CI (%u)\00", align 1
@hf_gsm_a_bssmap_cell_id_unknown_format = internal global i32 0, align 4

; Function Attrs: null_pointer_is_valid sspstrong uwtable
define hidden zeroext i16 @be_cell_id_type(ptr noundef %0, ptr noundef %1, ptr noundef %2, i32 noundef %3, i32 noundef %4, ptr noundef %5, i32 noundef %6, i8 noundef zeroext %7, i32 noundef %8) #1 {
  %10 = alloca ptr, align 8
  %11 = alloca ptr, align 8
  %12 = alloca ptr, align 8
  %13 = alloca i32, align 4
  %14 = alloca i32, align 4
  %15 = alloca ptr, align 8
  %16 = alloca i32, align 4
  %17 = alloca i8, align 1
  %18 = alloca i32, align 4
  %19 = alloca i32, align 4
  %20 = alloca i32, align 4
  %21 = alloca ptr, align 8
  %22 = alloca ptr, align 8
  %23 = alloca ptr, align 8
  store ptr %0, ptr %10, align 8
  store ptr %1, ptr %11, align 8
  store ptr %2, ptr %12, align 8
  store i32 %3, ptr %13, align 4
  store i32 %4, ptr %14, align 4
  store ptr %5, ptr %15, align 8
  store i32 %6, ptr %16, align 4
  store i8 %7, ptr %17, align 1
  store i32 %8, ptr %18, align 4
  call void @llvm.lifetime.start.p0(i64 4, ptr %19) #5
  call void @llvm.lifetime.start.p0(i64 4, ptr %20) #5
  %24 = load ptr, ptr %15, align 8
  %25 = icmp ne ptr %24, null
  br i1 %25, label %26, label %29

26:                                               ; preds = %9
  %27 = load ptr, ptr %15, align 8
  %28 = getelementptr i8, ptr %27, i64 0
  store i8 0, ptr %28, align 1
  br label %29

29:                                               ; preds = %26, %9
  %30 = load i32, ptr %13, align 4
  store i32 %30, ptr %20, align 4
  %31 = load i8, ptr %17, align 1
  %32 = zext i8 %31 to i32
  switch i32 %32, label %215 [
    i32 0, label %33
    i32 4, label %33
    i32 8, label %33
    i32 11, label %33
    i32 12, label %33
    i32 1, label %52
    i32 5, label %52
    i32 10, label %52
    i32 9, label %104
    i32 2, label %174
  ]

33:                                               ; preds = %29, %29, %29, %29, %29
  %34 = load i8, ptr %17, align 1
  %35 = zext i8 %34 to i32
  %36 = icmp ne i32 %35, 11
  br i1 %36, label %37, label %44

37:                                               ; preds = %33
  %38 = load ptr, ptr %10, align 8
  %39 = load ptr, ptr %12, align 8
  %40 = load ptr, ptr %11, align 8
  %41 = load i32, ptr %20, align 4
  %42 = load i32, ptr %18, align 4
  %43 = call i32 @dissect_e212_mcc_mnc(ptr noundef %38, ptr noundef %39, ptr noundef %40, i32 noundef %41, i32 noundef %42, i1 noundef zeroext true)
  store i32 %43, ptr %20, align 4
  br label %51

44:                                               ; preds = %33
  %45 = load ptr, ptr %10, align 8
  %46 = load ptr, ptr %12, align 8
  %47 = load ptr, ptr %11, align 8
  %48 = load i32, ptr %20, align 4
  %49 = load i32, ptr %18, align 4
  %50 = call i32 @dissect_e212_mcc_mnc(ptr noundef %45, ptr noundef %46, ptr noundef %47, i32 noundef %48, i32 noundef %49, i1 noundef zeroext false)
  store i32 %50, ptr %20, align 4
  br label %51

51:                                               ; preds = %44, %37
  br label %52

52:                                               ; preds = %29, %29, %29, %51
  %53 = load ptr, ptr %10, align 8
  %54 = load i32, ptr %20, align 4
  %55 = call zeroext i16 @tvb_get_ntohs(ptr noundef %53, i32 noundef %54)
  %56 = zext i16 %55 to i32
  store i32 %56, ptr %19, align 4
  %57 = load ptr, ptr %11, align 8
  %58 = load i32, ptr @hf_gsm_a_bssmap_cell_lac, align 4
  %59 = load ptr, ptr %10, align 8
  %60 = load i32, ptr %20, align 4
  %61 = call ptr @proto_tree_add_item(ptr noundef %57, i32 noundef %58, ptr noundef %59, i32 noundef %60, i32 noundef 2, i32 noundef 0)
  %62 = load i32, ptr %20, align 4
  %63 = add i32 %62, 2
  store i32 %63, ptr %20, align 4
  %64 = load ptr, ptr %15, align 8
  %65 = icmp ne ptr %64, null
  br i1 %65, label %66, label %74

66:                                               ; preds = %52
  %67 = load ptr, ptr %15, align 8
  %68 = load i32, ptr %16, align 4
  %69 = sext i32 %68 to i64
  %70 = load ptr, ptr %15, align 8
  %71 = call i64 @llvm.objectsize.i64.p0(ptr %70, i1 false, i1 true, i1 true)
  %72 = load i32, ptr %19, align 4
  %73 = call i32 (ptr, i64, i32, i64, ptr, ...) @__snprintf_chk(ptr noundef %67, i64 noundef %69, i32 noundef 2, i64 noundef %71, ptr noundef @.str.128, i32 noundef %72)
  br label %74

74:                                               ; preds = %66, %52
  %75 = load i8, ptr %17, align 1
  %76 = zext i8 %75 to i32
  %77 = icmp eq i32 %76, 11
  br i1 %77, label %78, label %103

78:                                               ; preds = %74
  %79 = load ptr, ptr %10, align 8
  %80 = load i32, ptr %20, align 4
  %81 = call zeroext i16 @tvb_get_ntohs(ptr noundef %79, i32 noundef %80)
  %82 = zext i16 %81 to i32
  store i32 %82, ptr %19, align 4
  %83 = load ptr, ptr %11, align 8
  %84 = load i32, ptr @hf_gsm_a_bssmap_sac, align 4
  %85 = load ptr, ptr %10, align 8
  %86 = load i32, ptr %20, align 4
  %87 = call ptr @proto_tree_add_item(ptr noundef %83, i32 noundef %84, ptr noundef %85, i32 noundef %86, i32 noundef 2, i32 noundef 0)
  %88 = load ptr, ptr %15, align 8
  %89 = icmp ne ptr %88, null
  br i1 %89, label %90, label %100

90:                                               ; preds = %78
  call void @llvm.lifetime.start.p0(i64 8, ptr %21) #5
  %91 = load ptr, ptr %15, align 8
  %92 = load i32, ptr %19, align 4
  %93 = call noalias ptr (ptr, ptr, ...) @wmem_strdup_printf(ptr noundef null, ptr noundef @.str.129, ptr noundef %91, i32 noundef %92)
  store ptr %93, ptr %21, align 8
  %94 = load ptr, ptr %15, align 8
  %95 = load ptr, ptr %21, align 8
  %96 = load i32, ptr %16, align 4
  %97 = sext i32 %96 to i64
  %98 = call i64 @g_strlcpy(ptr noundef %94, ptr noundef %95, i64 noundef %97)
  %99 = load ptr, ptr %21, align 8
  call void @g_free(ptr noundef %99)
  call void @llvm.lifetime.end.p0(i64 8, ptr %21) #5
  br label %100

100:                                              ; preds = %90, %78
  %101 = load i32, ptr %20, align 4
  %102 = add i32 %101, 2
  store i32 %102, ptr %20, align 4
  br label %225

103:                                              ; preds = %74
  br label %104

104:                                              ; preds = %29, %103
  %105 = load i8, ptr %17, align 1
  %106 = zext i8 %105 to i32
  %107 = icmp eq i32 %106, 8
  br i1 %107, label %120, label %108

108:                                              ; preds = %104
  %109 = load i8, ptr %17, align 1
  %110 = zext i8 %109 to i32
  %111 = icmp eq i32 %110, 9
  br i1 %111, label %120, label %112

112:                                              ; preds = %108
  %113 = load i8, ptr %17, align 1
  %114 = zext i8 %113 to i32
  %115 = icmp eq i32 %114, 10
  br i1 %115, label %120, label %116

116:                                              ; preds = %112
  %117 = load i8, ptr %17, align 1
  %118 = zext i8 %117 to i32
  %119 = icmp eq i32 %118, 12
  br i1 %119, label %120, label %160

120:                                              ; preds = %116, %112, %108, %104
  %121 = load ptr, ptr %10, align 8
  %122 = load i32, ptr %20, align 4
  %123 = call zeroext i16 @tvb_get_ntohs(ptr noundef %121, i32 noundef %122)
  %124 = zext i16 %123 to i32
  store i32 %124, ptr %19, align 4
  %125 = load ptr, ptr %11, align 8
  %126 = load i32, ptr @hf_gsm_a_bssmap_be_rnc_id, align 4
  %127 = load ptr, ptr %10, align 8
  %128 = load i32, ptr %20, align 4
  %129 = call ptr @proto_tree_add_item(ptr noundef %125, i32 noundef %126, ptr noundef %127, i32 noundef %128, i32 noundef 2, i32 noundef 0)
  %130 = load i32, ptr %20, align 4
  %131 = add i32 %130, 2
  store i32 %131, ptr %20, align 4
  %132 = load ptr, ptr %15, align 8
  %133 = icmp ne ptr %132, null
  br i1 %133, label %134, label %159

134:                                              ; preds = %120
  %135 = load ptr, ptr %15, align 8
  %136 = getelementptr i8, ptr %135, i64 0
  %137 = load i8, ptr %136, align 1
  %138 = sext i8 %137 to i32
  %139 = icmp eq i32 %138, 0
  br i1 %139, label %140, label %148

140:                                              ; preds = %134
  %141 = load ptr, ptr %15, align 8
  %142 = load i32, ptr %16, align 4
  %143 = sext i32 %142 to i64
  %144 = load ptr, ptr %15, align 8
  %145 = call i64 @llvm.objectsize.i64.p0(ptr %144, i1 false, i1 true, i1 true)
  %146 = load i32, ptr %19, align 4
  %147 = call i32 (ptr, i64, i32, i64, ptr, ...) @__snprintf_chk(ptr noundef %141, i64 noundef %143, i32 noundef 2, i64 noundef %145, ptr noundef @.str.130, i32 noundef %146)
  br label %158

148:                                              ; preds = %134
  call void @llvm.lifetime.start.p0(i64 8, ptr %22) #5
  %149 = load ptr, ptr %15, align 8
  %150 = load i32, ptr %19, align 4
  %151 = call noalias ptr (ptr, ptr, ...) @wmem_strdup_printf(ptr noundef null, ptr noundef @.str.131, ptr noundef %149, i32 noundef %150)
  store ptr %151, ptr %22, align 8
  %152 = load ptr, ptr %15, align 8
  %153 = load ptr, ptr %22, align 8
  %154 = load i32, ptr %16, align 4
  %155 = sext i32 %154 to i64
  %156 = call i64 @g_strlcpy(ptr noundef %152, ptr noundef %153, i64 noundef %155)
  %157 = load ptr, ptr %22, align 8
  call void @g_free(ptr noundef %157)
  call void @llvm.lifetime.end.p0(i64 8, ptr %22) #5
  br label %158

158:                                              ; preds = %148, %140
  br label %159

159:                                              ; preds = %158, %120
  br label %225

160:                                              ; preds = %116
  %161 = load i8, ptr %17, align 1
  %162 = zext i8 %161 to i32
  %163 = icmp eq i32 %162, 4
  br i1 %163, label %172, label %164

164:                                              ; preds = %160
  %165 = load i8, ptr %17, align 1
  %166 = zext i8 %165 to i32
  %167 = icmp eq i32 %166, 5
  br i1 %167, label %172, label %168

168:                                              ; preds = %164
  %169 = load i8, ptr %17, align 1
  %170 = zext i8 %169 to i32
  %171 = icmp eq i32 %170, 8
  br i1 %171, label %172, label %173

172:                                              ; preds = %168, %164, %160
  br label %225

173:                                              ; preds = %168
  br label %174

174:                                              ; preds = %29, %173
  %175 = load ptr, ptr %10, align 8
  %176 = load i32, ptr %20, align 4
  %177 = call zeroext i16 @tvb_get_ntohs(ptr noundef %175, i32 noundef %176)
  %178 = zext i16 %177 to i32
  store i32 %178, ptr %19, align 4
  %179 = load ptr, ptr %11, align 8
  %180 = load i32, ptr @hf_gsm_a_bssmap_cell_ci, align 4
  %181 = load ptr, ptr %10, align 8
  %182 = load i32, ptr %20, align 4
  %183 = load i32, ptr %19, align 4
  %184 = call ptr @proto_tree_add_uint(ptr noundef %179, i32 noundef %180, ptr noundef %181, i32 noundef %182, i32 noundef 2, i32 noundef %183)
  %185 = load i32, ptr %20, align 4
  %186 = add i32 %185, 2
  store i32 %186, ptr %20, align 4
  %187 = load ptr, ptr %15, align 8
  %188 = icmp ne ptr %187, null
  br i1 %188, label %189, label %214

189:                                              ; preds = %174
  %190 = load ptr, ptr %15, align 8
  %191 = getelementptr i8, ptr %190, i64 0
  %192 = load i8, ptr %191, align 1
  %193 = sext i8 %192 to i32
  %194 = icmp eq i32 %193, 0
  br i1 %194, label %195, label %203

195:                                              ; preds = %189
  %196 = load ptr, ptr %15, align 8
  %197 = load i32, ptr %16, align 4
  %198 = sext i32 %197 to i64
  %199 = load ptr, ptr %15, align 8
  %200 = call i64 @llvm.objectsize.i64.p0(ptr %199, i1 false, i1 true, i1 true)
  %201 = load i32, ptr %19, align 4
  %202 = call i32 (ptr, i64, i32, i64, ptr, ...) @__snprintf_chk(ptr noundef %196, i64 noundef %198, i32 noundef 2, i64 noundef %200, ptr noundef @.str.132, i32 noundef %201)
  br label %213

203:                                              ; preds = %189
  call void @llvm.lifetime.start.p0(i64 8, ptr %23) #5
  %204 = load ptr, ptr %15, align 8
  %205 = load i32, ptr %19, align 4
  %206 = call noalias ptr (ptr, ptr, ...) @wmem_strdup_printf(ptr noundef null, ptr noundef @.str.133, ptr noundef %204, i32 noundef %205)
  store ptr %206, ptr %23, align 8
  %207 = load ptr, ptr %15, align 8
  %208 = load ptr, ptr %23, align 8
  %209 = load i32, ptr %16, align 4
  %210 = sext i32 %209 to i64
  %211 = call i64 @g_strlcpy(ptr noundef %207, ptr noundef %208, i64 noundef %210)
  %212 = load ptr, ptr %23, align 8
  call void @g_free(ptr noundef %212)
  call void @llvm.lifetime.end.p0(i64 8, ptr %23) #5
  br label %213

213:                                              ; preds = %203, %195
  br label %214

214:                                              ; preds = %213, %174
  br label %225

215:                                              ; preds = %29
  %216 = load ptr, ptr %11, align 8
  %217 = load i32, ptr @hf_gsm_a_bssmap_cell_id_unknown_format, align 4
  %218 = load ptr, ptr %10, align 8
  %219 = load i32, ptr %20, align 4
  %220 = load i32, ptr %14, align 4
  %221 = call ptr @proto_tree_add_item(ptr noundef %216, i32 noundef %217, ptr noundef %218, i32 noundef %219, i32 noundef %220, i32 noundef 0)
  %222 = load i32, ptr %14, align 4
  %223 = load i32, ptr %20, align 4
  %224 = add i32 %223, %222
  store i32 %224, ptr %20, align 4
  br label %225

225:                                              ; preds = %215, %214, %172, %159, %100
  %226 = load i32, ptr %20, align 4
  %227 = load i32, ptr %13, align 4
  %228 = sub i32 %226, %227
  %229 = trunc i32 %228 to i16
  call void @llvm.lifetime.end.p0(i64 4, ptr %20) #5
  call void @llvm.lifetime.end.p0(i64 4, ptr %19) #5
  ret i16 %229
}