; Function Attrs: null_pointer_is_valid sspstrong uwtable
define hidden noundef zeroext i16 @be_cell_id_type(ptr noundef %0, ptr noundef %1, ptr noundef %2, i32 noundef %3, i32 noundef %4, ptr noundef %5, i32 noundef %6, i8 noundef zeroext %7, i32 noundef %8) local_unnamed_addr #1 {
  %.not = icmp eq ptr %5, null
  br i1 %.not, label %11, label %10

10:                                               ; preds = %9
  store i8 0, ptr %5, align 1
  br label %11

11:                                               ; preds = %10, %9
  switch i8 %7, label %68 [
    i8 2, label %52
    i8 9, label %.thread
    i8 10, label %14
    i8 5, label %14
    i8 1, label %14
    i8 11, label %12
    i8 0, label %.sink.split
    i8 4, label %.sink.split
    i8 8, label %.sink.split
    i8 12, label %.sink.split
  ]

12:                                               ; preds = %11
  br label %.sink.split

.sink.split:                                      ; preds = %11, %11, %11, %11, %12
  %.sink = phi i1 [ false, %12 ], [ true, %11 ], [ true, %11 ], [ true, %11 ], [ true, %11 ]
  %13 = tail call i32 @dissect_e212_mcc_mnc(ptr noundef %0, ptr noundef %2, ptr noundef %1, i32 noundef %3, i32 noundef %8, i1 noundef zeroext %.sink)
  br label %14

14:                                               ; preds = %.sink.split, %11, %11, %11
  %.0 = phi i32 [ %3, %11 ], [ %3, %11 ], [ %3, %11 ], [ %13, %.sink.split ]
  %15 = tail call zeroext i16 @tvb_get_ntohs(ptr noundef %0, i32 noundef %.0)
  %16 = load i32, ptr @hf_gsm_a_bssmap_cell_lac, align 4
  %17 = tail call ptr @proto_tree_add_item(ptr noundef %1, i32 noundef %16, ptr noundef %0, i32 noundef %.0, i32 noundef 2, i32 noundef 0)
  %18 = add i32 %.0, 2
  br i1 %.not, label %23, label %19

19:                                               ; preds = %14
  %20 = zext i16 %15 to i32
  %21 = sext i32 %6 to i64
  %22 = tail call i32 (ptr, i64, i32, i64, ptr, ...) @__snprintf_chk(ptr noundef nonnull %5, i64 noundef %21, i32 noundef 2, i64 noundef -1, ptr noundef nonnull @.str.128, i32 noundef %20)
  br label %23

23:                                               ; preds = %19, %14
  switch i8 %7, label %50 [
    i8 11, label %24
    i8 12, label %.thread
    i8 10, label %.thread
    i8 9, label %.thread
    i8 8, label %.thread
  ]

24:                                               ; preds = %23
  %25 = tail call zeroext i16 @tvb_get_ntohs(ptr noundef %0, i32 noundef %18)
  %26 = load i32, ptr @hf_gsm_a_bssmap_sac, align 4
  %27 = tail call ptr @proto_tree_add_item(ptr noundef %1, i32 noundef %26, ptr noundef %0, i32 noundef %18, i32 noundef 2, i32 noundef 0)
  br i1 %.not, label %33, label %28

28:                                               ; preds = %24
  %29 = zext i16 %25 to i32
  %30 = tail call noalias ptr (ptr, ptr, ...) @wmem_strdup_printf(ptr noundef null, ptr noundef nonnull @.str.129, ptr noundef nonnull %5, i32 noundef %29)
  %31 = sext i32 %6 to i64
  %32 = tail call i64 @g_strlcpy(ptr noundef nonnull %5, ptr noundef %30, i64 noundef %31)
  tail call void @g_free(ptr noundef %30)
  br label %33

33:                                               ; preds = %28, %24
  %34 = add i32 %.0, 4
  br label %72

.thread:                                          ; preds = %23, %23, %23, %23, %11
  %.1114 = phi i32 [ %3, %11 ], [ %18, %23 ], [ %18, %23 ], [ %18, %23 ], [ %18, %23 ]
  %35 = tail call zeroext i16 @tvb_get_ntohs(ptr noundef %0, i32 noundef %.1114)
  %36 = zext i16 %35 to i32
  %37 = load i32, ptr @hf_gsm_a_bssmap_be_rnc_id, align 4
  %38 = tail call ptr @proto_tree_add_item(ptr noundef %1, i32 noundef %37, ptr noundef %0, i32 noundef %.1114, i32 noundef 2, i32 noundef 0)
  %39 = add i32 %.1114, 2
  br i1 %.not, label %72, label %40

40:                                               ; preds = %.thread
  %41 = load i8, ptr %5, align 1
  %42 = icmp eq i8 %41, 0
  br i1 %42, label %43, label %46

43:                                               ; preds = %40
  %44 = sext i32 %6 to i64
  %45 = tail call i32 (ptr, i64, i32, i64, ptr, ...) @__snprintf_chk(ptr noundef nonnull %5, i64 noundef %44, i32 noundef 2, i64 noundef -1, ptr noundef nonnull @.str.130, i32 noundef %36)
  br label %72

46:                                               ; preds = %40
  %47 = tail call noalias ptr (ptr, ptr, ...) @wmem_strdup_printf(ptr noundef null, ptr noundef nonnull @.str.131, ptr noundef nonnull %5, i32 noundef %36)
  %48 = sext i32 %6 to i64
  %49 = tail call i64 @g_strlcpy(ptr noundef nonnull %5, ptr noundef %47, i64 noundef %48)
  tail call void @g_free(ptr noundef %47)
  br label %72

50:                                               ; preds = %23
  %51 = and i8 %7, -2
  %or.cond11 = icmp eq i8 %51, 4
  br i1 %or.cond11, label %72, label %52

52:                                               ; preds = %11, %50
  %.2 = phi i32 [ %3, %11 ], [ %18, %50 ]
  %53 = tail call zeroext i16 @tvb_get_ntohs(ptr noundef %0, i32 noundef %.2)
  %54 = zext i16 %53 to i32
  %55 = load i32, ptr @hf_gsm_a_bssmap_cell_ci, align 4
  %56 = tail call ptr @proto_tree_add_uint(ptr noundef %1, i32 noundef %55, ptr noundef %0, i32 noundef %.2, i32 noundef 2, i32 noundef %54)
  %57 = add i32 %.2, 2
  br i1 %.not, label %72, label %58

58:                                               ; preds = %52
  %59 = load i8, ptr %5, align 1
  %60 = icmp eq i8 %59, 0
  br i1 %60, label %61, label %64

61:                                               ; preds = %58
  %62 = sext i32 %6 to i64
  %63 = tail call i32 (ptr, i64, i32, i64, ptr, ...) @__snprintf_chk(ptr noundef nonnull %5, i64 noundef %62, i32 noundef 2, i64 noundef -1, ptr noundef nonnull @.str.132, i32 noundef %54)
  br label %72

64:                                               ; preds = %58
  %65 = tail call noalias ptr (ptr, ptr, ...) @wmem_strdup_printf(ptr noundef null, ptr noundef nonnull @.str.133, ptr noundef nonnull %5, i32 noundef %54)
  %66 = sext i32 %6 to i64
  %67 = tail call i64 @g_strlcpy(ptr noundef nonnull %5, ptr noundef %65, i64 noundef %66)
  tail call void @g_free(ptr noundef %65)
  br label %72

68:                                               ; preds = %11
  %69 = load i32, ptr @hf_gsm_a_bssmap_cell_id_unknown_format, align 4
  %70 = tail call ptr @proto_tree_add_item(ptr noundef %1, i32 noundef %69, ptr noundef %0, i32 noundef %3, i32 noundef %4, i32 noundef 0)
  %71 = add i32 %4, %3
  br label %72

72:                                               ; preds = %52, %64, %61, %50, %.thread, %46, %43, %68, %33
  %.3 = phi i32 [ %71, %68 ], [ %57, %61 ], [ %57, %64 ], [ %57, %52 ], [ %39, %43 ], [ %39, %46 ], [ %39, %.thread ], [ %18, %50 ], [ %34, %33 ]
  %73 = sub i32 %.3, %3
  %74 = trunc i32 %73 to i16
  ret i16 %74
}